target datalayout = "e-m:e-p270:32:32-p271:32:32-p272:64:64-i64:64-i128:128-f80:128-n8:16:32:64-S128"
target triple = "x86_64-pc-linux-gnu"

%struct.APK_DATA_st = type { ptr, i64, i32 }

@.str.28 = private unnamed_addr constant [34 x i8] c"../openssl/test/evp_extra_test2.c\00", align 1
@.str.64 = private unnamed_addr constant [47 x i8] c"provider = OSSL_PROVIDER_load(NULL, \22default\22)\00", align 1
@.str.65 = private unnamed_addr constant [8 x i8] c"default\00", align 1
@.str.67 = private unnamed_addr constant [58 x i8] c"pkey = PEM_read_bio_PrivateKey(key_bio, NULL, NULL, NULL)\00", align 1
@.str.68 = private unnamed_addr constant [21 x i8] c"BIO_seek(key_bio, 0)\00", align 1
@.str.69 = private unnamed_addr constant [2 x i8] c"0\00", align 1
@.str.71 = private unnamed_addr constant [17 x i8] c"ERR_peek_error()\00", align 1
@.str.200 = private unnamed_addr constant [70 x i8] c"key_bio = BIO_new_mem_buf(keydata[testid].kder, keydata[testid].size)\00", align 1

; Function Attrs: nounwind uwtable
define internal i32 @test_PEM_read_bio_negative(i32 noundef %0) #0 {
  %2 = alloca i32, align 4
  %3 = alloca i32, align 4
  %4 = alloca ptr, align 8
  %5 = alloca ptr, align 8
  %6 = alloca ptr, align 8
  store i32 %0, ptr %2, align 4, !tbaa !11
  call void @llvm.lifetime.start.p0(i64 4, ptr %3) #7
  store i32 0, ptr %3, align 4, !tbaa !11
  call void @llvm.lifetime.start.p0(i64 8, ptr %4) #7
  store ptr null, ptr %4, align 8, !tbaa !27
  call void @llvm.lifetime.start.p0(i64 8, ptr %5) #7
  store ptr null, ptr %5, align 8, !tbaa !31
  call void @llvm.lifetime.start.p0(i64 8, ptr %6) #7
  store ptr null, ptr %6, align 8, !tbaa !13
  %7 = load i32, ptr %2, align 4, !tbaa !11
  %8 = sext i32 %7 to i64
  %9 = getelementptr inbounds [6 x %struct.APK_DATA_st], ptr @keydata, i64 0, i64 %8
  %10 = getelementptr inbounds nuw %struct.APK_DATA_st, ptr %9, i32 0, i32 0
  %11 = load ptr, ptr %10, align 8, !tbaa !17
  %12 = load i32, ptr %2, align 4, !tbaa !11
  %13 = sext i32 %12 to i64
  %14 = getelementptr inbounds [6 x %struct.APK_DATA_st], ptr @keydata, i64 0, i64 %13
  %15 = getelementptr inbounds nuw %struct.APK_DATA_st, ptr %14, i32 0, i32 1
  %16 = load i64, ptr %15, align 8, !tbaa !22
  %17 = trunc i64 %16 to i32
  %18 = call ptr @BIO_new_mem_buf(ptr noundef %11, i32 noundef %17)
  store ptr %18, ptr %5, align 8, !tbaa !31
  %19 = call i32 @test_ptr(ptr noundef @.str.28, i32 noundef 789, ptr noundef @.str.200, ptr noundef %18)
  %20 = icmp ne i32 %19, 0
  br i1 %20, label %22, label %21

21:                                               ; preds = %1
  br label %59

22:                                               ; preds = %1
  call void @ERR_clear_error()
  %23 = load ptr, ptr %5, align 8, !tbaa !31
  %24 = call ptr @PEM_read_bio_PrivateKey(ptr noundef %23, ptr noundef null, ptr noundef null, ptr noundef null)
  store ptr %24, ptr %6, align 8, !tbaa !13
  %25 = call i32 @test_ptr_null(ptr noundef @.str.28, i32 noundef 792, ptr noundef @.str.67, ptr noundef %24)
  %26 = icmp ne i32 %25, 0
  br i1 %26, label %28, label %27

27:                                               ; preds = %22
  br label %59

28:                                               ; preds = %22
  %29 = call i64 @ERR_peek_error()
  %30 = trunc i64 %29 to i32
  %31 = call i32 @test_int_ne(ptr noundef @.str.28, i32 noundef 794, ptr noundef @.str.71, ptr noundef @.str.69, i32 noundef %30, i32 noundef 0)
  %32 = icmp ne i32 %31, 0
  br i1 %32, label %34, label %33

33:                                               ; preds = %28
  br label %59

34:                                               ; preds = %28
  %35 = call ptr @OSSL_PROVIDER_load(ptr noundef null, ptr noundef @.str.65)
  store ptr %35, ptr %4, align 8, !tbaa !27
  %36 = call i32 @test_ptr(ptr noundef @.str.28, i32 noundef 796, ptr noundef @.str.64, ptr noundef %35)
  %37 = icmp ne i32 %36, 0
  br i1 %37, label %39, label %38

38:                                               ; preds = %34
  br label %59

39:                                               ; preds = %34
  %40 = load ptr, ptr %5, align 8, !tbaa !31
  %41 = call i64 @BIO_ctrl(ptr noundef %40, i32 noundef 128, i64 noundef 0, ptr noundef null)
  %42 = trunc i64 %41 to i32
  %43 = call i32 @test_int_ge(ptr noundef @.str.28, i32 noundef 798, ptr noundef @.str.68, ptr noundef @.str.69, i32 noundef %42, i32 noundef 0)
  %44 = icmp ne i32 %43, 0
  br i1 %44, label %46, label %45

45:                                               ; preds = %39
  br label %59

46:                                               ; preds = %39
  call void @ERR_clear_error()
  %47 = load ptr, ptr %5, align 8, !tbaa !31
  %48 = call ptr @PEM_read_bio_PrivateKey(ptr noundef %47, ptr noundef null, ptr noundef null, ptr noundef null)
  store ptr %48, ptr %6, align 8, !tbaa !13
  %49 = call i32 @test_ptr_null(ptr noundef @.str.28, i32 noundef 801, ptr noundef @.str.67, ptr noundef %48)
  %50 = icmp ne i32 %49, 0
  br i1 %50, label %52, label %51

51:                                               ; preds = %46
  br label %59

52:                                               ; preds = %46
  %53 = call i64 @ERR_peek_error()
  %54 = trunc i64 %53 to i32
  %55 = call i32 @test_int_ne(ptr noundef @.str.28, i32 noundef 803, ptr noundef @.str.71, ptr noundef @.str.69, i32 noundef %54, i32 noundef 0)
  %56 = icmp ne i32 %55, 0
  br i1 %56, label %58, label %57

57:                                               ; preds = %52
  br label %59

58:                                               ; preds = %52
  store i32 1, ptr %3, align 4, !tbaa !11
  br label %59

59:                                               ; preds = %58, %57, %51, %45, %38, %33, %27, %21
  call void @test_openssl_errors()
  %60 = load ptr, ptr %6, align 8, !tbaa !13
  call void @EVP_PKEY_free(ptr noundef %60)
  %61 = load ptr, ptr %5, align 8, !tbaa !31
  %62 = call i32 @BIO_free(ptr noundef %61)
  %63 = load ptr, ptr %4, align 8, !tbaa !27
  %64 = call i32 @OSSL_PROVIDER_unload(ptr noundef %63)
  %65 = load i32, ptr %3, align 4, !tbaa !11
  call void @llvm.lifetime.end.p0(i64 8, ptr %6) #7
  call void @llvm.lifetime.end.p0(i64 8, ptr %5) #7
  call void @llvm.lifetime.end.p0(i64 8, ptr %4) #7
  call void @llvm.lifetime.end.p0(i64 4, ptr %3) #7
  ret i32 %65
}