; Function Attrs: nounwind uwtable
define internal range(i32 0, 2) i32 @test_PEM_read_bio_negative(i32 noundef %0) #0 {
  %2 = sext i32 %0 to i64
  %3 = getelementptr inbounds [6 x %struct.APK_DATA_st], ptr @keydata, i64 0, i64 %2
  %4 = load ptr, ptr %3, align 8, !tbaa !9
  %5 = getelementptr inbounds nuw i8, ptr %3, i64 8
  %6 = load i64, ptr %5, align 8, !tbaa !14
  %7 = trunc i64 %6 to i32
  %8 = tail call ptr @BIO_new_mem_buf(ptr noundef %4, i32 noundef %7) #7
  %9 = tail call i32 @test_ptr(ptr noundef nonnull @.str.28, i32 noundef 789, ptr noundef nonnull @.str.200, ptr noundef %8) #7
  %.not = icmp eq i32 %9, 0
  br i1 %.not, label %31, label %10

10:                                               ; preds = %1
  tail call void @ERR_clear_error() #7
  %11 = tail call ptr @PEM_read_bio_PrivateKey(ptr noundef %8, ptr noundef null, ptr noundef null, ptr noundef null) #7
  %12 = tail call i32 @test_ptr_null(ptr noundef nonnull @.str.28, i32 noundef 792, ptr noundef nonnull @.str.67, ptr noundef %11) #7
  %.not10 = icmp eq i32 %12, 0
  br i1 %.not10, label %31, label %13

13:                                               ; preds = %10
  %14 = tail call i64 @ERR_peek_error() #7
  %15 = trunc i64 %14 to i32
  %16 = tail call i32 @test_int_ne(ptr noundef nonnull @.str.28, i32 noundef 794, ptr noundef nonnull @.str.71, ptr noundef nonnull @.str.69, i32 noundef %15, i32 noundef 0) #7
  %.not11 = icmp eq i32 %16, 0
  br i1 %.not11, label %31, label %17

17:                                               ; preds = %13
  %18 = tail call ptr @OSSL_PROVIDER_load(ptr noundef null, ptr noundef nonnull @.str.65) #7
  %19 = tail call i32 @test_ptr(ptr noundef nonnull @.str.28, i32 noundef 796, ptr noundef nonnull @.str.64, ptr noundef %18) #7
  %.not12 = icmp eq i32 %19, 0
  br i1 %.not12, label %31, label %20

20:                                               ; preds = %17
  %21 = tail call i64 @BIO_ctrl(ptr noundef %8, i32 noundef 128, i64 noundef 0, ptr noundef null) #7
  %22 = trunc i64 %21 to i32
  %23 = tail call i32 @test_int_ge(ptr noundef nonnull @.str.28, i32 noundef 798, ptr noundef nonnull @.str.68, ptr noundef nonnull @.str.69, i32 noundef %22, i32 noundef 0) #7
  %.not13 = icmp eq i32 %23, 0
  br i1 %.not13, label %31, label %24

24:                                               ; preds = %20
  tail call void @ERR_clear_error() #7
  %25 = tail call ptr @PEM_read_bio_PrivateKey(ptr noundef %8, ptr noundef null, ptr noundef null, ptr noundef null) #7
  %26 = tail call i32 @test_ptr_null(ptr noundef nonnull @.str.28, i32 noundef 801, ptr noundef nonnull @.str.67, ptr noundef %25) #7
  %.not14 = icmp eq i32 %26, 0
  br i1 %.not14, label %31, label %27

27:                                               ; preds = %24
  %28 = tail call i64 @ERR_peek_error() #7
  %29 = trunc i64 %28 to i32
  %30 = tail call i32 @test_int_ne(ptr noundef nonnull @.str.28, i32 noundef 803, ptr noundef nonnull @.str.71, ptr noundef nonnull @.str.69, i32 noundef %29, i32 noundef 0) #7
  %.not15 = icmp ne i32 %30, 0
  %spec.select = zext i1 %.not15 to i32
  br label %31

31:                                               ; preds = %27, %24, %20, %17, %13, %10, %1
  %.09 = phi i32 [ 0, %24 ], [ 0, %20 ], [ 0, %17 ], [ 0, %13 ], [ 0, %10 ], [ 0, %1 ], [ %spec.select, %27 ]
  %.08 = phi ptr [ %18, %24 ], [ %18, %20 ], [ %18, %17 ], [ null, %13 ], [ null, %10 ], [ null, %1 ], [ %18, %27 ]
  %.0 = phi ptr [ %25, %24 ], [ %11, %20 ], [ %11, %17 ], [ %11, %13 ], [ %11, %10 ], [ null, %1 ], [ %25, %27 ]
  tail call void @test_openssl_errors() #7
  tail call void @EVP_PKEY_free(ptr noundef %.0) #7
  %32 = tail call i32 @BIO_free(ptr noundef %8) #7
  %33 = tail call i32 @OSSL_PROVIDER_unload(ptr noundef %.08) #7
  ret i32 %.09
}